; Function Attrs: nounwind uwtable
define internal i32 @T42_Size_Select(ptr noundef captures(none) %0, i64 noundef %1) #0 {
  %3 = load ptr, ptr %0, align 8, !tbaa !195
  %4 = getelementptr inbounds nuw i8, ptr %0, i64 88
  %5 = load ptr, ptr %4, align 8, !tbaa !200
  %6 = tail call i32 @FT_Activate_Size(ptr noundef %5) #13
  %7 = getelementptr inbounds nuw i8, ptr %3, i64 808
  %8 = load ptr, ptr %7, align 8, !tbaa !19
  %9 = trunc i64 %1 to i32
  %10 = tail call i32 @FT_Select_Size(ptr noundef %8, i32 noundef %9) #13
  %.not = icmp eq i32 %10, 0
  br i1 %.not, label %11, label %17

11:                                               ; preds = %2
  %12 = getelementptr inbounds nuw i8, ptr %0, i64 24
  %13 = load ptr, ptr %7, align 8, !tbaa !19
  %14 = getelementptr inbounds nuw i8, ptr %13, i64 160
  %15 = load ptr, ptr %14, align 8, !tbaa !167
  %16 = getelementptr inbounds nuw i8, ptr %15, i64 24
  tail call void @llvm.memcpy.p0.p0.i64(ptr noundef nonnull align 8 dereferenceable(56) %12, ptr noundef nonnull align 8 dereferenceable(56) %16, i64 56, i1 false), !tbaa.struct !237
  br label %17

17:                                               ; preds = %11, %2
  ret i32 %10
}